target datalayout = "e-m:e-p270:32:32-p271:32:32-p272:64:64-i64:64-i128:128-f80:128-n8:16:32:64-S128"
target triple = "x86_64-pc-linux-gnu"

%struct.HeapTupleData = type { i32, %struct.ItemPointerData, i32, ptr }
%struct.ItemPointerData = type { %struct.BlockIdData, i16 }
%struct.BlockIdData = type { i16, i16 }
%struct.Node = type { i32 }
%struct.HeapTupleHeaderData = type { %union.anon, %struct.ItemPointerData, i16, i16, i8, [0 x i8] }
%union.anon = type { %struct.HeapTupleFields }
%struct.HeapTupleFields = type { i32, i32, %union.anon.0 }
%union.anon.0 = type { i32 }
%struct.StatisticExtInfo = type { i32, i32, i8, ptr, i8, ptr, ptr }
%struct.FormData_pg_statistic_ext_data = type { i32, i8 }

; Function Attrs: inlinehint nounwind uwtable
define internal ptr @newNode(i64 noundef %0, i32 noundef %1) #4 {
  %3 = alloca i64, align 8
  %4 = alloca i32, align 4
  %5 = alloca ptr, align 8
  store i64 %0, ptr %3, align 8
  store i32 %1, ptr %4, align 4
  call void @llvm.lifetime.start.p0(i64 8, ptr %5) #10
  %6 = load i64, ptr %3, align 8
  %7 = call ptr @palloc0(i64 noundef %6)
  store ptr %7, ptr %5, align 8
  %8 = load i32, ptr %4, align 4
  %9 = load ptr, ptr %5, align 8
  %10 = getelementptr inbounds nuw %struct.Node, ptr %9, i32 0, i32 0
  store i32 %8, ptr %10, align 4
  %11 = load ptr, ptr %5, align 8
  call void @llvm.lifetime.end.p0(i64 8, ptr %5) #10
  ret ptr %11
}

; Function Attrs: inlinehint nounwind uwtable
define internal ptr @GETSTRUCT(ptr noundef %0) #4 {
  %2 = alloca ptr, align 8
  store ptr %0, ptr %2, align 8
  %3 = load ptr, ptr %2, align 8
  %4 = getelementptr inbounds nuw %struct.HeapTupleData, ptr %3, i32 0, i32 3
  %5 = load ptr, ptr %4, align 8
  %6 = load ptr, ptr %2, align 8
  %7 = getelementptr inbounds nuw %struct.HeapTupleData, ptr %6, i32 0, i32 3
  %8 = load ptr, ptr %7, align 8
  %9 = getelementptr inbounds nuw %struct.HeapTupleHeaderData, ptr %8, i32 0, i32 4
  %10 = load i8, ptr %9, align 2
  %11 = zext i8 %10 to i32
  %12 = sext i32 %11 to i64
  %13 = getelementptr inbounds i8, ptr %5, i64 %12
  ret ptr %13
}

; Function Attrs: inlinehint nounwind uwtable
define internal i64 @BoolGetDatum(i1 noundef zeroext %0) #4 {
  %2 = alloca i8, align 1
  %3 = zext i1 %0 to i8
  store i8 %3, ptr %2, align 1
  %4 = load i8, ptr %2, align 1, !range !4, !noundef !5
  %5 = trunc i8 %4 to i1
  %6 = select i1 %5, i32 1, i32 0
  %7 = sext i32 %6 to i64
  ret i64 %7
}

; Function Attrs: inlinehint nounwind uwtable
define internal i64 @ObjectIdGetDatum(i32 noundef %0) #4 {
  %2 = alloca i32, align 4
  store i32 %0, ptr %2, align 4
  %3 = load i32, ptr %2, align 4
  %4 = zext i32 %3 to i64
  ret i64 %4
}

; Function Attrs: nounwind uwtable
define internal void @get_relation_statistics_worker(ptr noundef %0, ptr noundef %1, i32 noundef %2, i1 noundef zeroext %3, ptr noundef %4, ptr noundef %5) #0 {
  %7 = alloca ptr, align 8
  %8 = alloca ptr, align 8
  %9 = alloca i32, align 4
  %10 = alloca i8, align 1
  %11 = alloca ptr, align 8
  %12 = alloca ptr, align 8
  %13 = alloca ptr, align 8
  %14 = alloca ptr, align 8
  %15 = alloca i32, align 4
  %16 = alloca ptr, align 8
  %17 = alloca ptr, align 8
  %18 = alloca ptr, align 8
  %19 = alloca ptr, align 8
  store ptr %0, ptr %7, align 8
  store ptr %1, ptr %8, align 8
  store i32 %2, ptr %9, align 4
  %20 = zext i1 %3 to i8
  store i8 %20, ptr %10, align 1
  store ptr %4, ptr %11, align 8
  store ptr %5, ptr %12, align 8
  call void @llvm.lifetime.start.p0(i64 8, ptr %13) #10
  call void @llvm.lifetime.start.p0(i64 8, ptr %14) #10
  %21 = load i32, ptr %9, align 4
  %22 = call i64 @ObjectIdGetDatum(i32 noundef %21)
  %23 = load i8, ptr %10, align 1, !range !4, !noundef !5
  %24 = trunc i8 %23 to i1
  %25 = call i64 @BoolGetDatum(i1 noundef zeroext %24)
  %26 = call ptr @SearchSysCache2(i32 noundef 62, i64 noundef %22, i64 noundef %25)
  store ptr %26, ptr %14, align 8
  %27 = load ptr, ptr %14, align 8
  %28 = icmp ne ptr %27, null
  br i1 %28, label %30, label %29

29:                                               ; preds = %6
  store i32 1, ptr %15, align 4
  br label %162

30:                                               ; preds = %6
  %31 = load ptr, ptr %14, align 8
  %32 = call ptr @GETSTRUCT(ptr noundef %31)
  store ptr %32, ptr %13, align 8
  %33 = load ptr, ptr %14, align 8
  %34 = call zeroext i1 @statext_is_kind_built(ptr noundef %33, i8 noundef signext 100)
  br i1 %34, label %35, label %64

35:                                               ; preds = %30
  call void @llvm.lifetime.start.p0(i64 8, ptr %16) #10
  %36 = call ptr @newNode(i64 noundef 48, i32 noundef 270)
  store ptr %36, ptr %16, align 8
  %37 = load i32, ptr %9, align 4
  %38 = load ptr, ptr %16, align 8
  %39 = getelementptr inbounds nuw %struct.StatisticExtInfo, ptr %38, i32 0, i32 1
  store i32 %37, ptr %39, align 4
  %40 = load ptr, ptr %13, align 8
  %41 = getelementptr inbounds nuw %struct.FormData_pg_statistic_ext_data, ptr %40, i32 0, i32 1
  %42 = load i8, ptr %41, align 4, !range !4, !noundef !5
  %43 = trunc i8 %42 to i1
  %44 = load ptr, ptr %16, align 8
  %45 = getelementptr inbounds nuw %struct.StatisticExtInfo, ptr %44, i32 0, i32 2
  %46 = zext i1 %43 to i8
  store i8 %46, ptr %45, align 8
  %47 = load ptr, ptr %8, align 8
  %48 = load ptr, ptr %16, align 8
  %49 = getelementptr inbounds nuw %struct.StatisticExtInfo, ptr %48, i32 0, i32 3
  store ptr %47, ptr %49, align 8
  %50 = load ptr, ptr %16, align 8
  %51 = getelementptr inbounds nuw %struct.StatisticExtInfo, ptr %50, i32 0, i32 4
  store i8 100, ptr %51, align 8
  %52 = load ptr, ptr %11, align 8
  %53 = call ptr @bms_copy(ptr noundef %52)
  %54 = load ptr, ptr %16, align 8
  %55 = getelementptr inbounds nuw %struct.StatisticExtInfo, ptr %54, i32 0, i32 5
  store ptr %53, ptr %55, align 8
  %56 = load ptr, ptr %12, align 8
  %57 = load ptr, ptr %16, align 8
  %58 = getelementptr inbounds nuw %struct.StatisticExtInfo, ptr %57, i32 0, i32 6
  store ptr %56, ptr %58, align 8
  %59 = load ptr, ptr %7, align 8
  %60 = load ptr, ptr %59, align 8
  %61 = load ptr, ptr %16, align 8
  %62 = call ptr @lappend(ptr noundef %60, ptr noundef %61)
  %63 = load ptr, ptr %7, align 8
  store ptr %62, ptr %63, align 8
  call void @llvm.lifetime.end.p0(i64 8, ptr %16) #10
  br label %64

64:                                               ; preds = %35, %30
  %65 = load ptr, ptr %14, align 8
  %66 = call zeroext i1 @statext_is_kind_built(ptr noundef %65, i8 noundef signext 102)
  br i1 %66, label %67, label %96

67:                                               ; preds = %64
  call void @llvm.lifetime.start.p0(i64 8, ptr %17) #10
  %68 = call ptr @newNode(i64 noundef 48, i32 noundef 270)
  store ptr %68, ptr %17, align 8
  %69 = load i32, ptr %9, align 4
  %70 = load ptr, ptr %17, align 8
  %71 = getelementptr inbounds nuw %struct.StatisticExtInfo, ptr %70, i32 0, i32 1
  store i32 %69, ptr %71, align 4
  %72 = load ptr, ptr %13, align 8
  %73 = getelementptr inbounds nuw %struct.FormData_pg_statistic_ext_data, ptr %72, i32 0, i32 1
  %74 = load i8, ptr %73, align 4, !range !4, !noundef !5
  %75 = trunc i8 %74 to i1
  %76 = load ptr, ptr %17, align 8
  %77 = getelementptr inbounds nuw %struct.StatisticExtInfo, ptr %76, i32 0, i32 2
  %78 = zext i1 %75 to i8
  store i8 %78, ptr %77, align 8
  %79 = load ptr, ptr %8, align 8
  %80 = load ptr, ptr %17, align 8
  %81 = getelementptr inbounds nuw %struct.StatisticExtInfo, ptr %80, i32 0, i32 3
  store ptr %79, ptr %81, align 8
  %82 = load ptr, ptr %17, align 8
  %83 = getelementptr inbounds nuw %struct.StatisticExtInfo, ptr %82, i32 0, i32 4
  store i8 102, ptr %83, align 8
  %84 = load ptr, ptr %11, align 8
  %85 = call ptr @bms_copy(ptr noundef %84)
  %86 = load ptr, ptr %17, align 8
  %87 = getelementptr inbounds nuw %struct.StatisticExtInfo, ptr %86, i32 0, i32 5
  store ptr %85, ptr %87, align 8
  %88 = load ptr, ptr %12, align 8
  %89 = load ptr, ptr %17, align 8
  %90 = getelementptr inbounds nuw %struct.StatisticExtInfo, ptr %89, i32 0, i32 6
  store ptr %88, ptr %90, align 8
  %91 = load ptr, ptr %7, align 8
  %92 = load ptr, ptr %91, align 8
  %93 = load ptr, ptr %17, align 8
  %94 = call ptr @lappend(ptr noundef %92, ptr noundef %93)
  %95 = load ptr, ptr %7, align 8
  store ptr %94, ptr %95, align 8
  call void @llvm.lifetime.end.p0(i64 8, ptr %17) #10
  br label %96

96:                                               ; preds = %67, %64
  %97 = load ptr, ptr %14, align 8
  %98 = call zeroext i1 @statext_is_kind_built(ptr noundef %97, i8 noundef signext 109)
  br i1 %98, label %99, label %128

99:                                               ; preds = %96
  call void @llvm.lifetime.start.p0(i64 8, ptr %18) #10
  %100 = call ptr @newNode(i64 noundef 48, i32 noundef 270)
  store ptr %100, ptr %18, align 8
  %101 = load i32, ptr %9, align 4
  %102 = load ptr, ptr %18, align 8
  %103 = getelementptr inbounds nuw %struct.StatisticExtInfo, ptr %102, i32 0, i32 1
  store i32 %101, ptr %103, align 4
  %104 = load ptr, ptr %13, align 8
  %105 = getelementptr inbounds nuw %struct.FormData_pg_statistic_ext_data, ptr %104, i32 0, i32 1
  %106 = load i8, ptr %105, align 4, !range !4, !noundef !5
  %107 = trunc i8 %106 to i1
  %108 = load ptr, ptr %18, align 8
  %109 = getelementptr inbounds nuw %struct.StatisticExtInfo, ptr %108, i32 0, i32 2
  %110 = zext i1 %107 to i8
  store i8 %110, ptr %109, align 8
  %111 = load ptr, ptr %8, align 8
  %112 = load ptr, ptr %18, align 8
  %113 = getelementptr inbounds nuw %struct.StatisticExtInfo, ptr %112, i32 0, i32 3
  store ptr %111, ptr %113, align 8
  %114 = load ptr, ptr %18, align 8
  %115 = getelementptr inbounds nuw %struct.StatisticExtInfo, ptr %114, i32 0, i32 4
  store i8 109, ptr %115, align 8
  %116 = load ptr, ptr %11, align 8
  %117 = call ptr @bms_copy(ptr noundef %116)
  %118 = load ptr, ptr %18, align 8
  %119 = getelementptr inbounds nuw %struct.StatisticExtInfo, ptr %118, i32 0, i32 5
  store ptr %117, ptr %119, align 8
  %120 = load ptr, ptr %12, align 8
  %121 = load ptr, ptr %18, align 8
  %122 = getelementptr inbounds nuw %struct.StatisticExtInfo, ptr %121, i32 0, i32 6
  store ptr %120, ptr %122, align 8
  %123 = load ptr, ptr %7, align 8
  %124 = load ptr, ptr %123, align 8
  %125 = load ptr, ptr %18, align 8
  %126 = call ptr @lappend(ptr noundef %124, ptr noundef %125)
  %127 = load ptr, ptr %7, align 8
  store ptr %126, ptr %127, align 8
  call void @llvm.lifetime.end.p0(i64 8, ptr %18) #10
  br label %128

128:                                              ; preds = %99, %96
  %129 = load ptr, ptr %14, align 8
  %130 = call zeroext i1 @statext_is_kind_built(ptr noundef %129, i8 noundef signext 101)
  br i1 %130, label %131, label %160

131:                                              ; preds = %128
  call void @llvm.lifetime.start.p0(i64 8, ptr %19) #10
  %132 = call ptr @newNode(i64 noundef 48, i32 noundef 270)
  store ptr %132, ptr %19, align 8
  %133 = load i32, ptr %9, align 4
  %134 = load ptr, ptr %19, align 8
  %135 = getelementptr inbounds nuw %struct.StatisticExtInfo, ptr %134, i32 0, i32 1
  store i32 %133, ptr %135, align 4
  %136 = load ptr, ptr %13, align 8
  %137 = getelementptr inbounds nuw %struct.FormData_pg_statistic_ext_data, ptr %136, i32 0, i32 1
  %138 = load i8, ptr %137, align 4, !range !4, !noundef !5
  %139 = trunc i8 %138 to i1
  %140 = load ptr, ptr %19, align 8
  %141 = getelementptr inbounds nuw %struct.StatisticExtInfo, ptr %140, i32 0, i32 2
  %142 = zext i1 %139 to i8
  store i8 %142, ptr %141, align 8
  %143 = load ptr, ptr %8, align 8
  %144 = load ptr, ptr %19, align 8
  %145 = getelementptr inbounds nuw %struct.StatisticExtInfo, ptr %144, i32 0, i32 3
  store ptr %143, ptr %145, align 8
  %146 = load ptr, ptr %19, align 8
  %147 = getelementptr inbounds nuw %struct.StatisticExtInfo, ptr %146, i32 0, i32 4
  store i8 101, ptr %147, align 8
  %148 = load ptr, ptr %11, align 8
  %149 = call ptr @bms_copy(ptr noundef %148)
  %150 = load ptr, ptr %19, align 8
  %151 = getelementptr inbounds nuw %struct.StatisticExtInfo, ptr %150, i32 0, i32 5
  store ptr %149, ptr %151, align 8
  %152 = load ptr, ptr %12, align 8
  %153 = load ptr, ptr %19, align 8
  %154 = getelementptr inbounds nuw %struct.StatisticExtInfo, ptr %153, i32 0, i32 6
  store ptr %152, ptr %154, align 8
  %155 = load ptr, ptr %7, align 8
  %156 = load ptr, ptr %155, align 8
  %157 = load ptr, ptr %19, align 8
  %158 = call ptr @lappend(ptr noundef %156, ptr noundef %157)
  %159 = load ptr, ptr %7, align 8
  store ptr %158, ptr %159, align 8
  call void @llvm.lifetime.end.p0(i64 8, ptr %19) #10
  br label %160

160:                                              ; preds = %131, %128
  %161 = load ptr, ptr %14, align 8
  call void @ReleaseSysCache(ptr noundef %161)
  store i32 0, ptr %15, align 4
  br label %162

162:                                              ; preds = %160, %29
  call void @llvm.lifetime.end.p0(i64 8, ptr %14) #10
  call void @llvm.lifetime.end.p0(i64 8, ptr %13) #10
  %163 = load i32, ptr %15, align 4
  switch i32 %163, label %165 [
    i32 0, label %164
    i32 1, label %164
  ]

164:                                              ; preds = %162, %162
  ret void

165:                                              ; preds = %162
  unreachable
}