; Function Attrs: nounwind uwtable
define internal fastcc void @get_relation_statistics_worker(ptr noundef nonnull captures(none) %0, ptr noundef %1, i32 noundef %2, i1 noundef zeroext %3, ptr noundef %4, ptr noundef %5) unnamed_addr #0 {
  %7 = zext i32 %2 to i64
  %8 = zext i1 %3 to i64
  %9 = tail call ptr @SearchSysCache2(i32 noundef 62, i64 noundef %7, i64 noundef %8) #10
  %.not = icmp eq ptr %9, null
  br i1 %.not, label %76, label %10

10:                                               ; preds = %6
  %11 = getelementptr i8, ptr %9, i64 16
  %.val = load ptr, ptr %11, align 8
  %12 = getelementptr inbounds nuw i8, ptr %.val, i64 22
  %13 = load i8, ptr %12, align 2
  %14 = zext i8 %13 to i64
  %15 = getelementptr inbounds nuw i8, ptr %.val, i64 %14
  %16 = tail call zeroext i1 @statext_is_kind_built(ptr noundef nonnull %9, i8 noundef signext 100) #10
  br i1 %16, label %17, label %30

17:                                               ; preds = %10
  %18 = tail call noundef ptr @palloc0(i64 noundef 48) #10
  store i32 270, ptr %18, align 4
  %19 = getelementptr inbounds nuw i8, ptr %18, i64 4
  store i32 %2, ptr %19, align 4
  %20 = getelementptr inbounds nuw i8, ptr %15, i64 4
  %21 = load i8, ptr %20, align 4, !range !4, !noundef !5
  %22 = getelementptr inbounds nuw i8, ptr %18, i64 8
  store i8 %21, ptr %22, align 8
  %23 = getelementptr inbounds nuw i8, ptr %18, i64 16
  store ptr %1, ptr %23, align 8
  %24 = getelementptr inbounds nuw i8, ptr %18, i64 24
  store i8 100, ptr %24, align 8
  %25 = tail call ptr @bms_copy(ptr noundef %4) #10
  %26 = getelementptr inbounds nuw i8, ptr %18, i64 32
  store ptr %25, ptr %26, align 8
  %27 = getelementptr inbounds nuw i8, ptr %18, i64 40
  store ptr %5, ptr %27, align 8
  %28 = load ptr, ptr %0, align 8
  %29 = tail call ptr @lappend(ptr noundef %28, ptr noundef nonnull %18) #10
  store ptr %29, ptr %0, align 8
  br label %30

30:                                               ; preds = %17, %10
  %31 = tail call zeroext i1 @statext_is_kind_built(ptr noundef nonnull %9, i8 noundef signext 102) #10
  br i1 %31, label %32, label %45

32:                                               ; preds = %30
  %33 = tail call noundef ptr @palloc0(i64 noundef 48) #10
  store i32 270, ptr %33, align 4
  %34 = getelementptr inbounds nuw i8, ptr %33, i64 4
  store i32 %2, ptr %34, align 4
  %35 = getelementptr inbounds nuw i8, ptr %15, i64 4
  %36 = load i8, ptr %35, align 4, !range !4, !noundef !5
  %37 = getelementptr inbounds nuw i8, ptr %33, i64 8
  store i8 %36, ptr %37, align 8
  %38 = getelementptr inbounds nuw i8, ptr %33, i64 16
  store ptr %1, ptr %38, align 8
  %39 = getelementptr inbounds nuw i8, ptr %33, i64 24
  store i8 102, ptr %39, align 8
  %40 = tail call ptr @bms_copy(ptr noundef %4) #10
  %41 = getelementptr inbounds nuw i8, ptr %33, i64 32
  store ptr %40, ptr %41, align 8
  %42 = getelementptr inbounds nuw i8, ptr %33, i64 40
  store ptr %5, ptr %42, align 8
  %43 = load ptr, ptr %0, align 8
  %44 = tail call ptr @lappend(ptr noundef %43, ptr noundef nonnull %33) #10
  store ptr %44, ptr %0, align 8
  br label %45

45:                                               ; preds = %32, %30
  %46 = tail call zeroext i1 @statext_is_kind_built(ptr noundef nonnull %9, i8 noundef signext 109) #10
  br i1 %46, label %47, label %60

47:                                               ; preds = %45
  %48 = tail call noundef ptr @palloc0(i64 noundef 48) #10
  store i32 270, ptr %48, align 4
  %49 = getelementptr inbounds nuw i8, ptr %48, i64 4
  store i32 %2, ptr %49, align 4
  %50 = getelementptr inbounds nuw i8, ptr %15, i64 4
  %51 = load i8, ptr %50, align 4, !range !4, !noundef !5
  %52 = getelementptr inbounds nuw i8, ptr %48, i64 8
  store i8 %51, ptr %52, align 8
  %53 = getelementptr inbounds nuw i8, ptr %48, i64 16
  store ptr %1, ptr %53, align 8
  %54 = getelementptr inbounds nuw i8, ptr %48, i64 24
  store i8 109, ptr %54, align 8
  %55 = tail call ptr @bms_copy(ptr noundef %4) #10
  %56 = getelementptr inbounds nuw i8, ptr %48, i64 32
  store ptr %55, ptr %56, align 8
  %57 = getelementptr inbounds nuw i8, ptr %48, i64 40
  store ptr %5, ptr %57, align 8
  %58 = load ptr, ptr %0, align 8
  %59 = tail call ptr @lappend(ptr noundef %58, ptr noundef nonnull %48) #10
  store ptr %59, ptr %0, align 8
  br label %60

60:                                               ; preds = %47, %45
  %61 = tail call zeroext i1 @statext_is_kind_built(ptr noundef nonnull %9, i8 noundef signext 101) #10
  br i1 %61, label %62, label %75

62:                                               ; preds = %60
  %63 = tail call noundef ptr @palloc0(i64 noundef 48) #10
  store i32 270, ptr %63, align 4
  %64 = getelementptr inbounds nuw i8, ptr %63, i64 4
  store i32 %2, ptr %64, align 4
  %65 = getelementptr inbounds nuw i8, ptr %15, i64 4
  %66 = load i8, ptr %65, align 4, !range !4, !noundef !5
  %67 = getelementptr inbounds nuw i8, ptr %63, i64 8
  store i8 %66, ptr %67, align 8
  %68 = getelementptr inbounds nuw i8, ptr %63, i64 16
  store ptr %1, ptr %68, align 8
  %69 = getelementptr inbounds nuw i8, ptr %63, i64 24
  store i8 101, ptr %69, align 8
  %70 = tail call ptr @bms_copy(ptr noundef %4) #10
  %71 = getelementptr inbounds nuw i8, ptr %63, i64 32
  store ptr %70, ptr %71, align 8
  %72 = getelementptr inbounds nuw i8, ptr %63, i64 40
  store ptr %5, ptr %72, align 8
  %73 = load ptr, ptr %0, align 8
  %74 = tail call ptr @lappend(ptr noundef %73, ptr noundef nonnull %63) #10
  store ptr %74, ptr %0, align 8
  br label %75

75:                                               ; preds = %62, %60
  tail call void @ReleaseSysCache(ptr noundef nonnull %9) #10
  br label %76

76:                                               ; preds = %6, %75
  ret void
}